; Function Attrs: mustprogress uwtable
define void @_ZN3nix11copyClosureERNS_5StoreES1_RKSt3setINS_12RealisedPathESt4lessIS3_ESaIS3_EENS_10RepairFlagENS_13CheckSigsFlagENS_14SubstituteFlagE(ptr noundef nonnull align 8 dereferenceable(264) %0, ptr noundef nonnull align 8 dereferenceable(264) %1, ptr noundef nonnull align 8 dereferenceable(48) %2, i1 noundef zeroext %3, i1 noundef zeroext %4, i1 noundef zeroext %5) local_unnamed_addr #5 personality ptr @__gxx_personality_v0 {
  %7 = alloca %"class.std::set.519", align 8
  %8 = alloca %"class.std::map.506", align 8
  %9 = icmp eq ptr %0, %1
  br i1 %9, label %_ZNSt3setIN3nix12RealisedPathESt4lessIS1_ESaIS1_EED2Ev.exit, label %10

10:                                               ; preds = %6
  %11 = getelementptr inbounds i8, ptr %7, i64 8
  store i32 0, ptr %11, align 8
  %12 = getelementptr inbounds i8, ptr %7, i64 16
  store ptr null, ptr %12, align 8
  %13 = getelementptr inbounds i8, ptr %7, i64 24
  store ptr %11, ptr %13, align 8
  %14 = getelementptr inbounds i8, ptr %7, i64 32
  store ptr %11, ptr %14, align 8
  %15 = getelementptr inbounds i8, ptr %7, i64 40
  store i64 0, ptr %15, align 8
  invoke void @_ZN3nix12RealisedPath7closureERNS_5StoreERKSt3setIS0_St4lessIS0_ESaIS0_EERS7_(ptr noundef nonnull align 8 dereferenceable(264) %0, ptr noundef nonnull align 8 dereferenceable(48) %2, ptr noundef nonnull align 8 dereferenceable(48) %7)
          to label %16 unwind label %27

16:                                               ; preds = %10
  invoke void @_ZN3nix9copyPathsERNS_5StoreES1_RKSt3setINS_12RealisedPathESt4lessIS3_ESaIS3_EENS_10RepairFlagENS_13CheckSigsFlagENS_14SubstituteFlagE(ptr dead_on_unwind nonnull writable sret(%"class.std::map.506") align 8 %8, ptr noundef nonnull align 8 dereferenceable(264) %0, ptr noundef nonnull align 8 dereferenceable(264) %1, ptr noundef nonnull align 8 dereferenceable(48) %7, i1 noundef zeroext %3, i1 noundef zeroext %4, i1 noundef zeroext %5)
          to label %17 unwind label %27

17:                                               ; preds = %16
  %18 = getelementptr inbounds i8, ptr %8, i64 16
  %19 = load ptr, ptr %18, align 8
  invoke void @_ZNSt8_Rb_treeIN3nix9StorePathESt4pairIKS1_S1_ESt10_Select1stIS4_ESt4lessIS1_ESaIS4_EE8_M_eraseEPSt13_Rb_tree_nodeIS4_E(ptr noundef nonnull align 8 dereferenceable(48) %8, ptr noundef %19)
          to label %_ZNSt3mapIN3nix9StorePathES1_St4lessIS1_ESaISt4pairIKS1_S1_EEED2Ev.exit unwind label %20

20:                                               ; preds = %17
  %21 = landingpad { ptr, i32 }
          catch ptr null
  %22 = extractvalue { ptr, i32 } %21, 0
  call void @__clang_call_terminate(ptr %22) #36
  unreachable

_ZNSt3mapIN3nix9StorePathES1_St4lessIS1_ESaISt4pairIKS1_S1_EEED2Ev.exit: ; preds = %17
  %23 = load ptr, ptr %12, align 8
  invoke void @_ZNSt8_Rb_treeIN3nix12RealisedPathES1_St9_IdentityIS1_ESt4lessIS1_ESaIS1_EE8_M_eraseEPSt13_Rb_tree_nodeIS1_E(ptr noundef nonnull align 8 dereferenceable(48) %7, ptr noundef %23)
          to label %_ZNSt3setIN3nix12RealisedPathESt4lessIS1_ESaIS1_EED2Ev.exit unwind label %24

24:                                               ; preds = %_ZNSt3mapIN3nix9StorePathES1_St4lessIS1_ESaISt4pairIKS1_S1_EEED2Ev.exit
  %25 = landingpad { ptr, i32 }
          catch ptr null
  %26 = extractvalue { ptr, i32 } %25, 0
  call void @__clang_call_terminate(ptr %26) #36
  unreachable

_ZNSt3setIN3nix12RealisedPathESt4lessIS1_ESaIS1_EED2Ev.exit: ; preds = %_ZNSt3mapIN3nix9StorePathES1_St4lessIS1_ESaISt4pairIKS1_S1_EEED2Ev.exit, %6
  ret void

27:                                               ; preds = %16, %10
  %28 = landingpad { ptr, i32 }
          cleanup
  call void @_ZNSt3setIN3nix12RealisedPathESt4lessIS1_ESaIS1_EED2Ev(ptr noundef nonnull align 8 dereferenceable(48) %7) #31
  resume { ptr, i32 } %28
}